                                      1 ;--------------------------------------------------------
                                      2 ; File Created by SDCC : free open source ANSI-C Compiler
                                      3 ; Version 3.4.0 #8981 (Apr  5 2014) (MINGW32)
                                      4 ; This file was generated Thu Jan 22 08:43:43 2015
                                      5 ;--------------------------------------------------------
                                      6 	.module traffic_lights
                                      7 	.optsdcc -mmcs51 --model-small
                                      8 	
                                      9 ;--------------------------------------------------------
                                     10 ; Public variables in this module
                                     11 ;--------------------------------------------------------
                                     12 	.globl _main
                                     13 	.globl _green
                                     14 	.globl _display1
                                     15 	.globl _display
                                     16 	.globl _delay1
                                     17 	.globl _delay
                                     18 	.globl _CY
                                     19 	.globl _AC
                                     20 	.globl _F0
                                     21 	.globl _RS1
                                     22 	.globl _RS0
                                     23 	.globl _OV
                                     24 	.globl _FL
                                     25 	.globl _P
                                     26 	.globl _PS
                                     27 	.globl _PT1
                                     28 	.globl _PX1
                                     29 	.globl _PT0
                                     30 	.globl _PX0
                                     31 	.globl _RD
                                     32 	.globl _WR
                                     33 	.globl _T1
                                     34 	.globl _T0
                                     35 	.globl _INT1
                                     36 	.globl _INT0
                                     37 	.globl _TXD
                                     38 	.globl _RXD
                                     39 	.globl _P3_7
                                     40 	.globl _P3_6
                                     41 	.globl _P3_5
                                     42 	.globl _P3_4
                                     43 	.globl _P3_3
                                     44 	.globl _P3_2
                                     45 	.globl _P3_1
                                     46 	.globl _P3_0
                                     47 	.globl _EA
                                     48 	.globl _ES
                                     49 	.globl _ET1
                                     50 	.globl _EX1
                                     51 	.globl _ET0
                                     52 	.globl _EX0
                                     53 	.globl _P2_7
                                     54 	.globl _P2_6
                                     55 	.globl _P2_5
                                     56 	.globl _P2_4
                                     57 	.globl _P2_3
                                     58 	.globl _P2_2
                                     59 	.globl _P2_1
                                     60 	.globl _P2_0
                                     61 	.globl _SM0
                                     62 	.globl _SM1
                                     63 	.globl _SM2
                                     64 	.globl _REN
                                     65 	.globl _TB8
                                     66 	.globl _RB8
                                     67 	.globl _TI
                                     68 	.globl _RI
                                     69 	.globl _P1_7
                                     70 	.globl _P1_6
                                     71 	.globl _P1_5
                                     72 	.globl _P1_4
                                     73 	.globl _P1_3
                                     74 	.globl _P1_2
                                     75 	.globl _P1_1
                                     76 	.globl _P1_0
                                     77 	.globl _TF1
                                     78 	.globl _TR1
                                     79 	.globl _TF0
                                     80 	.globl _TR0
                                     81 	.globl _IE1
                                     82 	.globl _IT1
                                     83 	.globl _IE0
                                     84 	.globl _IT0
                                     85 	.globl _P0_7
                                     86 	.globl _P0_6
                                     87 	.globl _P0_5
                                     88 	.globl _P0_4
                                     89 	.globl _P0_3
                                     90 	.globl _P0_2
                                     91 	.globl _P0_1
                                     92 	.globl _P0_0
                                     93 	.globl _B
                                     94 	.globl _A
                                     95 	.globl _ACC
                                     96 	.globl _PSW
                                     97 	.globl _IP
                                     98 	.globl _P3
                                     99 	.globl _IE
                                    100 	.globl _P2
                                    101 	.globl _SBUF
                                    102 	.globl _SCON
                                    103 	.globl _P1
                                    104 	.globl _TH1
                                    105 	.globl _TH0
                                    106 	.globl _TL1
                                    107 	.globl _TL0
                                    108 	.globl _TMOD
                                    109 	.globl _TCON
                                    110 	.globl _PCON
                                    111 	.globl _DPH
                                    112 	.globl _DPL
                                    113 	.globl _SP
                                    114 	.globl _P0
                                    115 	.globl _c
                                    116 	.globl _b
                                    117 	.globl _l
                                    118 	.globl _k
                                    119 	.globl _j
                                    120 	.globl _i
                                    121 	.globl _a
                                    122 ;--------------------------------------------------------
                                    123 ; special function registers
                                    124 ;--------------------------------------------------------
                                    125 	.area RSEG    (ABS,DATA)
      000000                        126 	.org 0x0000
                           000080   127 _P0	=	0x0080
                           000081   128 _SP	=	0x0081
                           000082   129 _DPL	=	0x0082
                           000083   130 _DPH	=	0x0083
                           000087   131 _PCON	=	0x0087
                           000088   132 _TCON	=	0x0088
                           000089   133 _TMOD	=	0x0089
                           00008A   134 _TL0	=	0x008a
                           00008B   135 _TL1	=	0x008b
                           00008C   136 _TH0	=	0x008c
                           00008D   137 _TH1	=	0x008d
                           000090   138 _P1	=	0x0090
                           000098   139 _SCON	=	0x0098
                           000099   140 _SBUF	=	0x0099
                           0000A0   141 _P2	=	0x00a0
                           0000A8   142 _IE	=	0x00a8
                           0000B0   143 _P3	=	0x00b0
                           0000B8   144 _IP	=	0x00b8
                           0000D0   145 _PSW	=	0x00d0
                           0000E0   146 _ACC	=	0x00e0
                           0000E0   147 _A	=	0x00e0
                           0000F0   148 _B	=	0x00f0
                                    149 ;--------------------------------------------------------
                                    150 ; special function bits
                                    151 ;--------------------------------------------------------
                                    152 	.area RSEG    (ABS,DATA)
      000000                        153 	.org 0x0000
                           000080   154 _P0_0	=	0x0080
                           000081   155 _P0_1	=	0x0081
                           000082   156 _P0_2	=	0x0082
                           000083   157 _P0_3	=	0x0083
                           000084   158 _P0_4	=	0x0084
                           000085   159 _P0_5	=	0x0085
                           000086   160 _P0_6	=	0x0086
                           000087   161 _P0_7	=	0x0087
                           000088   162 _IT0	=	0x0088
                           000089   163 _IE0	=	0x0089
                           00008A   164 _IT1	=	0x008a
                           00008B   165 _IE1	=	0x008b
                           00008C   166 _TR0	=	0x008c
                           00008D   167 _TF0	=	0x008d
                           00008E   168 _TR1	=	0x008e
                           00008F   169 _TF1	=	0x008f
                           000090   170 _P1_0	=	0x0090
                           000091   171 _P1_1	=	0x0091
                           000092   172 _P1_2	=	0x0092
                           000093   173 _P1_3	=	0x0093
                           000094   174 _P1_4	=	0x0094
                           000095   175 _P1_5	=	0x0095
                           000096   176 _P1_6	=	0x0096
                           000097   177 _P1_7	=	0x0097
                           000098   178 _RI	=	0x0098
                           000099   179 _TI	=	0x0099
                           00009A   180 _RB8	=	0x009a
                           00009B   181 _TB8	=	0x009b
                           00009C   182 _REN	=	0x009c
                           00009D   183 _SM2	=	0x009d
                           00009E   184 _SM1	=	0x009e
                           00009F   185 _SM0	=	0x009f
                           0000A0   186 _P2_0	=	0x00a0
                           0000A1   187 _P2_1	=	0x00a1
                           0000A2   188 _P2_2	=	0x00a2
                           0000A3   189 _P2_3	=	0x00a3
                           0000A4   190 _P2_4	=	0x00a4
                           0000A5   191 _P2_5	=	0x00a5
                           0000A6   192 _P2_6	=	0x00a6
                           0000A7   193 _P2_7	=	0x00a7
                           0000A8   194 _EX0	=	0x00a8
                           0000A9   195 _ET0	=	0x00a9
                           0000AA   196 _EX1	=	0x00aa
                           0000AB   197 _ET1	=	0x00ab
                           0000AC   198 _ES	=	0x00ac
                           0000AF   199 _EA	=	0x00af
                           0000B0   200 _P3_0	=	0x00b0
                           0000B1   201 _P3_1	=	0x00b1
                           0000B2   202 _P3_2	=	0x00b2
                           0000B3   203 _P3_3	=	0x00b3
                           0000B4   204 _P3_4	=	0x00b4
                           0000B5   205 _P3_5	=	0x00b5
                           0000B6   206 _P3_6	=	0x00b6
                           0000B7   207 _P3_7	=	0x00b7
                           0000B0   208 _RXD	=	0x00b0
                           0000B1   209 _TXD	=	0x00b1
                           0000B2   210 _INT0	=	0x00b2
                           0000B3   211 _INT1	=	0x00b3
                           0000B4   212 _T0	=	0x00b4
                           0000B5   213 _T1	=	0x00b5
                           0000B6   214 _WR	=	0x00b6
                           0000B7   215 _RD	=	0x00b7
                           0000B8   216 _PX0	=	0x00b8
                           0000B9   217 _PT0	=	0x00b9
                           0000BA   218 _PX1	=	0x00ba
                           0000BB   219 _PT1	=	0x00bb
                           0000BC   220 _PS	=	0x00bc
                           0000D0   221 _P	=	0x00d0
                           0000D1   222 _FL	=	0x00d1
                           0000D2   223 _OV	=	0x00d2
                           0000D3   224 _RS0	=	0x00d3
                           0000D4   225 _RS1	=	0x00d4
                           0000D5   226 _F0	=	0x00d5
                           0000D6   227 _AC	=	0x00d6
                           0000D7   228 _CY	=	0x00d7
                                    229 ;--------------------------------------------------------
                                    230 ; overlayable register banks
                                    231 ;--------------------------------------------------------
                                    232 	.area REG_BANK_0	(REL,OVR,DATA)
      000000                        233 	.ds 8
                                    234 ;--------------------------------------------------------
                                    235 ; internal ram data
                                    236 ;--------------------------------------------------------
                                    237 	.area DSEG    (DATA)
      000000                        238 _a::
      000000                        239 	.ds 10
      00000A                        240 _i::
      00000A                        241 	.ds 2
      00000C                        242 _j::
      00000C                        243 	.ds 2
      00000E                        244 _k::
      00000E                        245 	.ds 2
      000010                        246 _l::
      000010                        247 	.ds 2
      000012                        248 _b::
      000012                        249 	.ds 1
      000013                        250 _c::
      000013                        251 	.ds 1
      000014                        252 _green_sloc0_1_0:
      000014                        253 	.ds 1
                                    254 ;--------------------------------------------------------
                                    255 ; overlayable items in internal ram 
                                    256 ;--------------------------------------------------------
                                    257 ;--------------------------------------------------------
                                    258 ; Stack segment in internal ram 
                                    259 ;--------------------------------------------------------
                                    260 	.area	SSEG
      000000                        261 __start__stack:
      000000                        262 	.ds	1
                                    263 
                                    264 ;--------------------------------------------------------
                                    265 ; indirectly addressable internal ram data
                                    266 ;--------------------------------------------------------
                                    267 	.area ISEG    (DATA)
                                    268 ;--------------------------------------------------------
                                    269 ; absolute internal ram data
                                    270 ;--------------------------------------------------------
                                    271 	.area IABS    (ABS,DATA)
                                    272 	.area IABS    (ABS,DATA)
                                    273 ;--------------------------------------------------------
                                    274 ; bit data
                                    275 ;--------------------------------------------------------
                                    276 	.area BSEG    (BIT)
                                    277 ;--------------------------------------------------------
                                    278 ; paged external ram data
                                    279 ;--------------------------------------------------------
                                    280 	.area PSEG    (PAG,XDATA)
                                    281 ;--------------------------------------------------------
                                    282 ; external ram data
                                    283 ;--------------------------------------------------------
                                    284 	.area XSEG    (XDATA)
                                    285 ;--------------------------------------------------------
                                    286 ; absolute external ram data
                                    287 ;--------------------------------------------------------
                                    288 	.area XABS    (ABS,XDATA)
                                    289 ;--------------------------------------------------------
                                    290 ; external initialized ram data
                                    291 ;--------------------------------------------------------
                                    292 	.area XISEG   (XDATA)
                                    293 	.area HOME    (CODE)
                                    294 	.area GSINIT0 (CODE)
                                    295 	.area GSINIT1 (CODE)
                                    296 	.area GSINIT2 (CODE)
                                    297 	.area GSINIT3 (CODE)
                                    298 	.area GSINIT4 (CODE)
                                    299 	.area GSINIT5 (CODE)
                                    300 	.area GSINIT  (CODE)
                                    301 	.area GSFINAL (CODE)
                                    302 	.area CSEG    (CODE)
                                    303 ;--------------------------------------------------------
                                    304 ; interrupt vector 
                                    305 ;--------------------------------------------------------
                                    306 	.area HOME    (CODE)
      000000                        307 __interrupt_vect:
      000000 02r00r00         [24]  308 	ljmp	__sdcc_gsinit_startup
                                    309 ;--------------------------------------------------------
                                    310 ; global & static initialisations
                                    311 ;--------------------------------------------------------
                                    312 	.area HOME    (CODE)
                                    313 	.area GSINIT  (CODE)
                                    314 	.area GSFINAL (CODE)
                                    315 	.area GSINIT  (CODE)
                                    316 	.globl __sdcc_gsinit_startup
                                    317 	.globl __sdcc_program_startup
                                    318 	.globl __start__stack
                                    319 	.globl __mcs51_genXINIT
                                    320 	.globl __mcs51_genXRAMCLEAR
                                    321 	.globl __mcs51_genRAMCLEAR
                                    322 ;	traffic_lights.c:2: char a[]={0x3F,0x06,0x5B,0x4F,0x66,0x6D,0x7D,0x07,0x7F,0x6F};
      000000 75*00 3F         [24]  323 	mov	_a,#0x3F
      000003 75*01 06         [24]  324 	mov	(_a + 0x0001),#0x06
      000006 75*02 5B         [24]  325 	mov	(_a + 0x0002),#0x5B
      000009 75*03 4F         [24]  326 	mov	(_a + 0x0003),#0x4F
      00000C 75*04 66         [24]  327 	mov	(_a + 0x0004),#0x66
      00000F 75*05 6D         [24]  328 	mov	(_a + 0x0005),#0x6D
      000012 75*06 7D         [24]  329 	mov	(_a + 0x0006),#0x7D
      000015 75*07 07         [24]  330 	mov	(_a + 0x0007),#0x07
      000018 75*08 7F         [24]  331 	mov	(_a + 0x0008),#0x7F
      00001B 75*09 6F         [24]  332 	mov	(_a + 0x0009),#0x6F
                                    333 	.area GSFINAL (CODE)
      000000 02r00r03         [24]  334 	ljmp	__sdcc_program_startup
                                    335 ;--------------------------------------------------------
                                    336 ; Home
                                    337 ;--------------------------------------------------------
                                    338 	.area HOME    (CODE)
                                    339 	.area HOME    (CODE)
      000003                        340 __sdcc_program_startup:
      000003 02r01r4B         [24]  341 	ljmp	_main
                                    342 ;	return from main will return to caller
                                    343 ;--------------------------------------------------------
                                    344 ; code
                                    345 ;--------------------------------------------------------
                                    346 	.area CSEG    (CODE)
                                    347 ;------------------------------------------------------------
                                    348 ;Allocation info for local variables in function 'delay'
                                    349 ;------------------------------------------------------------
                                    350 ;	traffic_lights.c:6: void delay()
                                    351 ;	-----------------------------------------
                                    352 ;	 function delay
                                    353 ;	-----------------------------------------
      000000                        354 _delay:
                           000007   355 	ar7 = 0x07
                           000006   356 	ar6 = 0x06
                           000005   357 	ar5 = 0x05
                           000004   358 	ar4 = 0x04
                           000003   359 	ar3 = 0x03
                           000002   360 	ar2 = 0x02
                           000001   361 	ar1 = 0x01
                           000000   362 	ar0 = 0x00
                                    363 ;	traffic_lights.c:8: TMOD=0X10;
      000000 75 89 10         [24]  364 	mov	_TMOD,#0x10
                                    365 ;	traffic_lights.c:9: TL1=0XFF;
      000003 75 8B FF         [24]  366 	mov	_TL1,#0xFF
                                    367 ;	traffic_lights.c:10: TH1=0XA5;
      000006 75 8D A5         [24]  368 	mov	_TH1,#0xA5
                                    369 ;	traffic_lights.c:11: TR1=1;
      000009 D2 8E            [12]  370 	setb	_TR1
                                    371 ;	traffic_lights.c:12: while(TF1==0);
      00000B                        372 00101$:
      00000B 30 8F FD         [24]  373 	jnb	_TF1,00101$
                                    374 ;	traffic_lights.c:13: TR1=0;
      00000E C2 8E            [12]  375 	clr	_TR1
                                    376 ;	traffic_lights.c:14: TF1=0;
      000010 C2 8F            [12]  377 	clr	_TF1
      000012 22               [24]  378 	ret
                                    379 ;------------------------------------------------------------
                                    380 ;Allocation info for local variables in function 'delay1'
                                    381 ;------------------------------------------------------------
                                    382 ;	traffic_lights.c:17: void delay1()
                                    383 ;	-----------------------------------------
                                    384 ;	 function delay1
                                    385 ;	-----------------------------------------
      000013                        386 _delay1:
                                    387 ;	traffic_lights.c:19: TMOD=0X01;
      000013 75 89 01         [24]  388 	mov	_TMOD,#0x01
                                    389 ;	traffic_lights.c:20: TL0=0XFF;
      000016 75 8A FF         [24]  390 	mov	_TL0,#0xFF
                                    391 ;	traffic_lights.c:21: TH0=0XA5;
      000019 75 8C A5         [24]  392 	mov	_TH0,#0xA5
                                    393 ;	traffic_lights.c:22: TR0=1;
      00001C D2 8C            [12]  394 	setb	_TR0
                                    395 ;	traffic_lights.c:23: while(TF0==0);
      00001E                        396 00101$:
      00001E 30 8D FD         [24]  397 	jnb	_TF0,00101$
                                    398 ;	traffic_lights.c:24: TR0=0;
      000021 C2 8C            [12]  399 	clr	_TR0
                                    400 ;	traffic_lights.c:25: TF0=0;
      000023 C2 8D            [12]  401 	clr	_TF0
      000025 22               [24]  402 	ret
                                    403 ;------------------------------------------------------------
                                    404 ;Allocation info for local variables in function 'display'
                                    405 ;------------------------------------------------------------
                                    406 ;x                         Allocated to registers r7 
                                    407 ;------------------------------------------------------------
                                    408 ;	traffic_lights.c:28: void display(char x)
                                    409 ;	-----------------------------------------
                                    410 ;	 function display
                                    411 ;	-----------------------------------------
      000026                        412 _display:
                                    413 ;	traffic_lights.c:30: for(j=x;j>=0;j--)
      000026 E5 82            [12]  414 	mov	a,dpl
      000028 FF               [12]  415 	mov	r7,a
      000029 F5*0C            [12]  416 	mov	_j,a
      00002B 33               [12]  417 	rlc	a
      00002C 95 E0            [12]  418 	subb	a,acc
      00002E F5*0D            [12]  419 	mov	(_j + 1),a
      000030                        420 00106$:
      000030 E5*0D            [12]  421 	mov	a,(_j + 1)
      000032 20 E7 3B         [24]  422 	jb	acc.7,00108$
                                    423 ;	traffic_lights.c:31: {P0_0=!P0_0;
      000035 B2 80            [12]  424 	cpl	_P0_0
                                    425 ;	traffic_lights.c:32: for(i=0;i<=42;i++)
      000037 E4               [12]  426 	clr	a
      000038 F5*0A            [12]  427 	mov	_i,a
      00003A F5*0B            [12]  428 	mov	(_i + 1),a
      00003C                        429 00103$:
                                    430 ;	traffic_lights.c:33: {    P2=b;
      00003C 85*12 A0         [24]  431 	mov	_P2,_b
                                    432 ;	traffic_lights.c:34: P3=c;
      00003F 85*13 B0         [24]  433 	mov	_P3,_c
                                    434 ;	traffic_lights.c:35: delay();
      000042 12r00r00         [24]  435 	lcall	_delay
                                    436 ;	traffic_lights.c:36: P1=a[j];    }
      000045 E5*0C            [12]  437 	mov	a,_j
      000047 24r00            [12]  438 	add	a,#_a
      000049 F9               [12]  439 	mov	r1,a
      00004A 87 90            [24]  440 	mov	_P1,@r1
                                    441 ;	traffic_lights.c:32: for(i=0;i<=42;i++)
      00004C 05*0A            [12]  442 	inc	_i
      00004E E4               [12]  443 	clr	a
      00004F B5*0A 02         [24]  444 	cjne	a,_i,00123$
      000052 05*0B            [12]  445 	inc	(_i + 1)
      000054                        446 00123$:
      000054 C3               [12]  447 	clr	c
      000055 74 2A            [12]  448 	mov	a,#0x2A
      000057 95*0A            [12]  449 	subb	a,_i
      000059 74 80            [12]  450 	mov	a,#(0x00 ^ 0x80)
      00005B 85*0B F0         [24]  451 	mov	b,(_i + 1)
      00005E 63 F0 80         [24]  452 	xrl	b,#0x80
      000061 95 F0            [12]  453 	subb	a,b
      000063 50 D7            [24]  454 	jnc	00103$
                                    455 ;	traffic_lights.c:30: for(j=x;j>=0;j--)
      000065 15*0C            [12]  456 	dec	_j
      000067 74 FF            [12]  457 	mov	a,#0xFF
      000069 B5*0C 02         [24]  458 	cjne	a,_j,00125$
      00006C 15*0D            [12]  459 	dec	(_j + 1)
      00006E                        460 00125$:
      00006E 80 C0            [24]  461 	sjmp	00106$
      000070                        462 00108$:
      000070 22               [24]  463 	ret
                                    464 ;------------------------------------------------------------
                                    465 ;Allocation info for local variables in function 'display1'
                                    466 ;------------------------------------------------------------
                                    467 ;m                         Allocated to registers r7 
                                    468 ;------------------------------------------------------------
                                    469 ;	traffic_lights.c:40: void display1(char m)
                                    470 ;	-----------------------------------------
                                    471 ;	 function display1
                                    472 ;	-----------------------------------------
      000071                        473 _display1:
                                    474 ;	traffic_lights.c:42: for(k=m;k>=0;k--)
      000071 E5 82            [12]  475 	mov	a,dpl
      000073 FF               [12]  476 	mov	r7,a
      000074 F5*0E            [12]  477 	mov	_k,a
      000076 33               [12]  478 	rlc	a
      000077 95 E0            [12]  479 	subb	a,acc
      000079 F5*0F            [12]  480 	mov	(_k + 1),a
      00007B                        481 00106$:
      00007B E5*0F            [12]  482 	mov	a,(_k + 1)
      00007D 20 E7 35         [24]  483 	jb	acc.7,00108$
                                    484 ;	traffic_lights.c:43: {P0_0=!P0_0;
      000080 B2 80            [12]  485 	cpl	_P0_0
                                    486 ;	traffic_lights.c:44: for(l=0;l<=42;l++)
      000082 E4               [12]  487 	clr	a
      000083 F5*10            [12]  488 	mov	_l,a
      000085 F5*11            [12]  489 	mov	(_l + 1),a
      000087                        490 00103$:
                                    491 ;	traffic_lights.c:45: {    delay1();
      000087 12r00r13         [24]  492 	lcall	_delay1
                                    493 ;	traffic_lights.c:46: P1=a[k];    }
      00008A E5*0E            [12]  494 	mov	a,_k
      00008C 24r00            [12]  495 	add	a,#_a
      00008E F9               [12]  496 	mov	r1,a
      00008F 87 90            [24]  497 	mov	_P1,@r1
                                    498 ;	traffic_lights.c:44: for(l=0;l<=42;l++)
      000091 05*10            [12]  499 	inc	_l
      000093 E4               [12]  500 	clr	a
      000094 B5*10 02         [24]  501 	cjne	a,_l,00123$
      000097 05*11            [12]  502 	inc	(_l + 1)
      000099                        503 00123$:
      000099 C3               [12]  504 	clr	c
      00009A 74 2A            [12]  505 	mov	a,#0x2A
      00009C 95*10            [12]  506 	subb	a,_l
      00009E 74 80            [12]  507 	mov	a,#(0x00 ^ 0x80)
      0000A0 85*11 F0         [24]  508 	mov	b,(_l + 1)
      0000A3 63 F0 80         [24]  509 	xrl	b,#0x80
      0000A6 95 F0            [12]  510 	subb	a,b
      0000A8 50 DD            [24]  511 	jnc	00103$
                                    512 ;	traffic_lights.c:42: for(k=m;k>=0;k--)
      0000AA 15*0E            [12]  513 	dec	_k
      0000AC 74 FF            [12]  514 	mov	a,#0xFF
      0000AE B5*0E 02         [24]  515 	cjne	a,_k,00125$
      0000B1 15*0F            [12]  516 	dec	(_k + 1)
      0000B3                        517 00125$:
      0000B3 80 C6            [24]  518 	sjmp	00106$
      0000B5                        519 00108$:
      0000B5 22               [24]  520 	ret
                                    521 ;------------------------------------------------------------
                                    522 ;Allocation info for local variables in function 'green'
                                    523 ;------------------------------------------------------------
                                    524 ;sloc0                     Allocated with name '_green_sloc0_1_0'
                                    525 ;------------------------------------------------------------
                                    526 ;	traffic_lights.c:50: void green()
                                    527 ;	-----------------------------------------
                                    528 ;	 function green
                                    529 ;	-----------------------------------------
      0000B6                        530 _green:
                                    531 ;	traffic_lights.c:53: if(P0_2==0 & P0_3==1 & P0_4==1 & P0_5==1)
      0000B6 A2 82            [12]  532 	mov	c,_P0_2
      0000B8 B3               [12]  533 	cpl	c
      0000B9 E4               [12]  534 	clr	a
      0000BA 33               [12]  535 	rlc	a
      0000BB FF               [12]  536 	mov	r7,a
      0000BC A2 83            [12]  537 	mov	c,_P0_3
      0000BE E4               [12]  538 	clr	a
      0000BF 33               [12]  539 	rlc	a
      0000C0 52 07            [12]  540 	anl	ar7,a
      0000C2 A2 84            [12]  541 	mov	c,_P0_4
      0000C4 E4               [12]  542 	clr	a
      0000C5 33               [12]  543 	rlc	a
      0000C6 52 07            [12]  544 	anl	ar7,a
      0000C8 A2 85            [12]  545 	mov	c,_P0_5
      0000CA E4               [12]  546 	clr	a
      0000CB 33               [12]  547 	rlc	a
      0000CC FE               [12]  548 	mov	r6,a
      0000CD 5F               [12]  549 	anl	a,r7
      0000CE 60 0C            [24]  550 	jz	00102$
                                    551 ;	traffic_lights.c:55: P2=0x0E;
      0000D0 75 A0 0E         [24]  552 	mov	_P2,#0x0E
                                    553 ;	traffic_lights.c:56: P3=0x1F;
      0000D3 75 B0 1F         [24]  554 	mov	_P3,#0x1F
                                    555 ;	traffic_lights.c:57: display1(9);
      0000D6 75 82 09         [24]  556 	mov	dpl,#0x09
      0000D9 12r00r71         [24]  557 	lcall	_display1
      0000DC                        558 00102$:
                                    559 ;	traffic_lights.c:61: if(P0_2==1 & P0_3==0 & P0_4==1 & P0_5==1)
      0000DC A2 83            [12]  560 	mov	c,_P0_3
      0000DE B3               [12]  561 	cpl	c
      0000DF E4               [12]  562 	clr	a
      0000E0 33               [12]  563 	rlc	a
      0000E1 FF               [12]  564 	mov	r7,a
      0000E2 A2 82            [12]  565 	mov	c,_P0_2
      0000E4 E4               [12]  566 	clr	a
      0000E5 33               [12]  567 	rlc	a
      0000E6 FE               [12]  568 	mov	r6,a
      0000E7 EF               [12]  569 	mov	a,r7
      0000E8 52 06            [12]  570 	anl	ar6,a
      0000EA A2 84            [12]  571 	mov	c,_P0_4
      0000EC E4               [12]  572 	clr	a
      0000ED 33               [12]  573 	rlc	a
      0000EE 52 06            [12]  574 	anl	ar6,a
      0000F0 A2 85            [12]  575 	mov	c,_P0_5
      0000F2 E4               [12]  576 	clr	a
      0000F3 33               [12]  577 	rlc	a
      0000F4 FF               [12]  578 	mov	r7,a
      0000F5 5E               [12]  579 	anl	a,r6
      0000F6 60 0C            [24]  580 	jz	00104$
                                    581 ;	traffic_lights.c:63: P2=0x0D;
      0000F8 75 A0 0D         [24]  582 	mov	_P2,#0x0D
                                    583 ;	traffic_lights.c:64: P3=0x2F;
      0000FB 75 B0 2F         [24]  584 	mov	_P3,#0x2F
                                    585 ;	traffic_lights.c:65: display1(9);
      0000FE 75 82 09         [24]  586 	mov	dpl,#0x09
      000101 12r00r71         [24]  587 	lcall	_display1
      000104                        588 00104$:
                                    589 ;	traffic_lights.c:69: if(P0_2==1 & P0_3==1 & P0_4==0 & P0_5==1)
      000104 A2 82            [12]  590 	mov	c,_P0_2
      000106 82 83            [24]  591 	anl	c,_P0_3
      000108 E4               [12]  592 	clr	a
      000109 33               [12]  593 	rlc	a
      00010A F5*14            [12]  594 	mov	_green_sloc0_1_0,a
      00010C A2 84            [12]  595 	mov	c,_P0_4
      00010E B3               [12]  596 	cpl	c
      00010F E4               [12]  597 	clr	a
      000110 33               [12]  598 	rlc	a
      000111 AE*14            [24]  599 	mov	r6,_green_sloc0_1_0
      000113 52 06            [12]  600 	anl	ar6,a
      000115 A2 85            [12]  601 	mov	c,_P0_5
      000117 E4               [12]  602 	clr	a
      000118 33               [12]  603 	rlc	a
      000119 FF               [12]  604 	mov	r7,a
      00011A 5E               [12]  605 	anl	a,r6
      00011B 60 0C            [24]  606 	jz	00106$
                                    607 ;	traffic_lights.c:71: P2=0x0B;
      00011D 75 A0 0B         [24]  608 	mov	_P2,#0x0B
                                    609 ;	traffic_lights.c:72: P3=0x4F;
      000120 75 B0 4F         [24]  610 	mov	_P3,#0x4F
                                    611 ;	traffic_lights.c:73: display1(9);
      000123 75 82 09         [24]  612 	mov	dpl,#0x09
      000126 12r00r71         [24]  613 	lcall	_display1
      000129                        614 00106$:
                                    615 ;	traffic_lights.c:77: if(P0_2==1 & P0_3==1 & P0_4==1 & P0_5==0)
      000129 A2 82            [12]  616 	mov	c,_P0_2
      00012B 82 83            [24]  617 	anl	c,_P0_3
      00012D 82 84            [24]  618 	anl	c,_P0_4
      00012F E4               [12]  619 	clr	a
      000130 33               [12]  620 	rlc	a
      000131 F5*14            [12]  621 	mov	_green_sloc0_1_0,a
      000133 A2 85            [12]  622 	mov	c,_P0_5
      000135 B3               [12]  623 	cpl	c
      000136 E4               [12]  624 	clr	a
      000137 33               [12]  625 	rlc	a
      000138 FF               [12]  626 	mov	r7,a
      000139 AE*14            [24]  627 	mov	r6,_green_sloc0_1_0
      00013B 5E               [12]  628 	anl	a,r6
      00013C 60 0C            [24]  629 	jz	00109$
                                    630 ;	traffic_lights.c:79: P2=0x07;
      00013E 75 A0 07         [24]  631 	mov	_P2,#0x07
                                    632 ;	traffic_lights.c:80: P3=0x8F;
      000141 75 B0 8F         [24]  633 	mov	_P3,#0x8F
                                    634 ;	traffic_lights.c:81: display1(9);
      000144 75 82 09         [24]  635 	mov	dpl,#0x09
      000147 02r00r71         [24]  636 	ljmp	_display1
      00014A                        637 00109$:
      00014A 22               [24]  638 	ret
                                    639 ;------------------------------------------------------------
                                    640 ;Allocation info for local variables in function 'main'
                                    641 ;------------------------------------------------------------
                                    642 ;	traffic_lights.c:86: void main()
                                    643 ;	-----------------------------------------
                                    644 ;	 function main
                                    645 ;	-----------------------------------------
      00014B                        646 _main:
                                    647 ;	traffic_lights.c:89: EX0=1;
      00014B D2 A8            [12]  648 	setb	_EX0
                                    649 ;	traffic_lights.c:90: EA=1;
      00014D D2 AF            [12]  650 	setb	_EA
                                    651 ;	traffic_lights.c:91: IT0=1;
      00014F D2 88            [12]  652 	setb	_IT0
                                    653 ;	traffic_lights.c:93: while(1)
      000151                        654 00102$:
                                    655 ;	traffic_lights.c:95: b=P2=0x0E;
      000151 75 A0 0E         [24]  656 	mov	_P2,#0x0E
      000154 75*12 0E         [24]  657 	mov	_b,#0x0E
                                    658 ;	traffic_lights.c:96: c=P3=0x1F;
      000157 75 B0 1F         [24]  659 	mov	_P3,#0x1F
      00015A 75*13 1F         [24]  660 	mov	_c,#0x1F
                                    661 ;	traffic_lights.c:97: display(0-7);
      00015D 75 82 F9         [24]  662 	mov	dpl,#0xF9
      000160 12r00r26         [24]  663 	lcall	_display
                                    664 ;	traffic_lights.c:100: b=P2=0x2D;
      000163 75 A0 2D         [24]  665 	mov	_P2,#0x2D
      000166 75*12 2D         [24]  666 	mov	_b,#0x2D
                                    667 ;	traffic_lights.c:101: c=P3=0x0F;
      000169 75 B0 0F         [24]  668 	mov	_P3,#0x0F
      00016C 75*13 0F         [24]  669 	mov	_c,#0x0F
                                    670 ;	traffic_lights.c:102: display(2);
      00016F 75 82 02         [24]  671 	mov	dpl,#0x02
      000172 12r00r26         [24]  672 	lcall	_display
                                    673 ;	traffic_lights.c:105: b=P2=0x0D;
      000175 75 A0 0D         [24]  674 	mov	_P2,#0x0D
      000178 75*12 0D         [24]  675 	mov	_b,#0x0D
                                    676 ;	traffic_lights.c:106: c=P3=0x2F;
      00017B 75 B0 2F         [24]  677 	mov	_P3,#0x2F
      00017E 75*13 2F         [24]  678 	mov	_c,#0x2F
                                    679 ;	traffic_lights.c:107: display(9);
      000181 75 82 09         [24]  680 	mov	dpl,#0x09
      000184 12r00r26         [24]  681 	lcall	_display
                                    682 ;	traffic_lights.c:110: b=P2=0x4B;
      000187 75 A0 4B         [24]  683 	mov	_P2,#0x4B
      00018A 75*12 4B         [24]  684 	mov	_b,#0x4B
                                    685 ;	traffic_lights.c:111: c=P3=0x0F;
      00018D 75 B0 0F         [24]  686 	mov	_P3,#0x0F
      000190 75*13 0F         [24]  687 	mov	_c,#0x0F
                                    688 ;	traffic_lights.c:112: display(2);
      000193 75 82 02         [24]  689 	mov	dpl,#0x02
      000196 12r00r26         [24]  690 	lcall	_display
                                    691 ;	traffic_lights.c:115: b=P2=0x0B;
      000199 75 A0 0B         [24]  692 	mov	_P2,#0x0B
      00019C 75*12 0B         [24]  693 	mov	_b,#0x0B
                                    694 ;	traffic_lights.c:116: c=P3=0x4F;
      00019F 75 B0 4F         [24]  695 	mov	_P3,#0x4F
      0001A2 75*13 4F         [24]  696 	mov	_c,#0x4F
                                    697 ;	traffic_lights.c:117: display(9);
      0001A5 75 82 09         [24]  698 	mov	dpl,#0x09
      0001A8 12r00r26         [24]  699 	lcall	_display
                                    700 ;	traffic_lights.c:120: b=P2=0x87;
      0001AB 75 A0 87         [24]  701 	mov	_P2,#0x87
      0001AE 75*12 87         [24]  702 	mov	_b,#0x87
                                    703 ;	traffic_lights.c:121: c=P3=0x0F;
      0001B1 75 B0 0F         [24]  704 	mov	_P3,#0x0F
      0001B4 75*13 0F         [24]  705 	mov	_c,#0x0F
                                    706 ;	traffic_lights.c:122: display(2);
      0001B7 75 82 02         [24]  707 	mov	dpl,#0x02
      0001BA 12r00r26         [24]  708 	lcall	_display
                                    709 ;	traffic_lights.c:125: b=P2=0x07;
      0001BD 75 A0 07         [24]  710 	mov	_P2,#0x07
      0001C0 75*12 07         [24]  711 	mov	_b,#0x07
                                    712 ;	traffic_lights.c:126: c=P3=0x8F;
      0001C3 75 B0 8F         [24]  713 	mov	_P3,#0x8F
      0001C6 75*13 8F         [24]  714 	mov	_c,#0x8F
                                    715 ;	traffic_lights.c:127: display(9);
      0001C9 75 82 09         [24]  716 	mov	dpl,#0x09
      0001CC 12r00r26         [24]  717 	lcall	_display
                                    718 ;	traffic_lights.c:130: b=P2=0x1E;
      0001CF 75 A0 1E         [24]  719 	mov	_P2,#0x1E
      0001D2 75*12 1E         [24]  720 	mov	_b,#0x1E
                                    721 ;	traffic_lights.c:131: c=P3=0x0F;
      0001D5 75 B0 0F         [24]  722 	mov	_P3,#0x0F
      0001D8 75*13 0F         [24]  723 	mov	_c,#0x0F
                                    724 ;	traffic_lights.c:132: display(2);
      0001DB 75 82 02         [24]  725 	mov	dpl,#0x02
      0001DE 12r00r26         [24]  726 	lcall	_display
      0001E1 02r01r51         [24]  727 	ljmp	00102$
                                    728 	.area CSEG    (CODE)
                                    729 	.area CONST   (CODE)
                                    730 	.area XINIT   (CODE)
                                    731 	.area CABS    (ABS,CODE)
